target datalayout = "e-m:e-p270:32:32-p271:32:32-p272:64:64-i64:64-i128:128-f80:128-n8:16:32:64-S128"
target triple = "x86_64-pc-linux-gnu"

%struct.PyVarObject = type { %struct._object, i64 }
%struct._object = type { %union.anon, ptr }
%union.anon = type { i64 }
%struct._typeobject = type { %struct.PyVarObject, ptr, i64, i64, ptr, i64, ptr, ptr, ptr, ptr, ptr, ptr, ptr, ptr, ptr, ptr, ptr, ptr, ptr, i64, ptr, ptr, ptr, ptr, i64, ptr, ptr, ptr, ptr, ptr, ptr, ptr, ptr, ptr, i64, ptr, ptr, ptr, ptr, ptr, ptr, ptr, ptr, ptr, ptr, ptr, i32, ptr, ptr, i8, i16 }

@.str.9 = private unnamed_addr constant [24 x i8] c"make_exception_with_doc\00", align 1
@.str.43 = private unnamed_addr constant [16 x i8] c"argument 'name'\00", align 1
@.str.44 = private unnamed_addr constant [4 x i8] c"str\00", align 1
@PyExc_ValueError = external global ptr, align 8
@.str.45 = private unnamed_addr constant [24 x i8] c"embedded null character\00", align 1
@.str.46 = private unnamed_addr constant [15 x i8] c"argument 'doc'\00", align 1
@.str.47 = private unnamed_addr constant [18 x i8] c"PyTuple_Check(op)\00", align 1
@.str.48 = private unnamed_addr constant [41 x i8] c"../cpython/Include/cpython/tupleobject.h\00", align 1
@__PRETTY_FUNCTION__.PyTuple_GET_SIZE = private unnamed_addr constant [40 x i8] c"Py_ssize_t PyTuple_GET_SIZE(PyObject *)\00", align 1
@PyLong_Type = external global %struct._typeobject, align 8
@.str.49 = private unnamed_addr constant [28 x i8] c"Py_TYPE(ob) != &PyLong_Type\00", align 1
@.str.50 = private unnamed_addr constant [28 x i8] c"../cpython/Include/object.h\00", align 1
@__PRETTY_FUNCTION__.Py_SIZE = private unnamed_addr constant [31 x i8] c"Py_ssize_t Py_SIZE(PyObject *)\00", align 1
@PyBool_Type = external global %struct._typeobject, align 8
@.str.51 = private unnamed_addr constant [28 x i8] c"Py_TYPE(ob) != &PyBool_Type\00", align 1

; Function Attrs: inlinehint nounwind uwtable
define internal i64 @Py_SIZE(ptr noundef %0) #5 {
  %2 = alloca ptr, align 8
  store ptr %0, ptr %2, align 8, !tbaa !3
  %3 = load ptr, ptr %2, align 8, !tbaa !3
  %4 = call ptr @_Py_TYPE(ptr noundef %3)
  %5 = icmp ne ptr %4, @PyLong_Type
  br i1 %5, label %6, label %7

6:                                                ; preds = %1
  br label %9

7:                                                ; preds = %1
  call void @__assert_fail(ptr noundef @.str.49, ptr noundef @.str.50, i32 noundef 282, ptr noundef @__PRETTY_FUNCTION__.Py_SIZE) #11
  unreachable

8:                                                ; No predecessors!
  br label %9

9:                                                ; preds = %8, %6
  %10 = load ptr, ptr %2, align 8, !tbaa !3
  %11 = call ptr @_Py_TYPE(ptr noundef %10)
  %12 = icmp ne ptr %11, @PyBool_Type
  br i1 %12, label %13, label %14

13:                                               ; preds = %9
  br label %16

14:                                               ; preds = %9
  call void @__assert_fail(ptr noundef @.str.51, ptr noundef @.str.50, i32 noundef 283, ptr noundef @__PRETTY_FUNCTION__.Py_SIZE) #11
  unreachable

15:                                               ; No predecessors!
  br label %16

16:                                               ; preds = %15, %13
  %17 = load ptr, ptr %2, align 8, !tbaa !3
  %18 = getelementptr inbounds nuw %struct.PyVarObject, ptr %17, i32 0, i32 1
  %19 = load i64, ptr %18, align 8, !tbaa !32
  ret i64 %19
}

; Function Attrs: nounwind uwtable
define internal ptr @_testcapi_make_exception_with_doc_impl(ptr noundef %0, ptr noundef %1, ptr noundef %2, ptr noundef %3, ptr noundef %4) #0 {
  %6 = alloca ptr, align 8
  %7 = alloca ptr, align 8
  %8 = alloca ptr, align 8
  %9 = alloca ptr, align 8
  %10 = alloca ptr, align 8
  store ptr %0, ptr %6, align 8, !tbaa !3
  store ptr %1, ptr %7, align 8, !tbaa !22
  store ptr %2, ptr %8, align 8, !tbaa !22
  store ptr %3, ptr %9, align 8, !tbaa !3
  store ptr %4, ptr %10, align 8, !tbaa !3
  %11 = load ptr, ptr %7, align 8, !tbaa !22
  %12 = load ptr, ptr %8, align 8, !tbaa !22
  %13 = load ptr, ptr %9, align 8, !tbaa !3
  %14 = load ptr, ptr %10, align 8, !tbaa !3
  %15 = call ptr @PyErr_NewExceptionWithDoc(ptr noundef %11, ptr noundef %12, ptr noundef %13, ptr noundef %14)
  ret ptr %15
}

; Function Attrs: inlinehint nounwind uwtable
define internal i32 @PyType_HasFeature(ptr noundef %0, i64 noundef %1) #5 {
  %3 = alloca ptr, align 8
  %4 = alloca i64, align 8
  %5 = alloca i64, align 8
  store ptr %0, ptr %3, align 8, !tbaa !26
  store i64 %1, ptr %4, align 8, !tbaa !25
  call void @llvm.lifetime.start.p0(i64 8, ptr %5) #10
  %6 = load ptr, ptr %3, align 8, !tbaa !26
  %7 = getelementptr inbounds nuw %struct._typeobject, ptr %6, i32 0, i32 19
  %8 = load i64, ptr %7, align 8, !tbaa !27
  store i64 %8, ptr %5, align 8, !tbaa !25
  %9 = load i64, ptr %5, align 8, !tbaa !25
  %10 = load i64, ptr %4, align 8, !tbaa !25
  %11 = and i64 %9, %10
  %12 = icmp ne i64 %11, 0
  %13 = zext i1 %12 to i32
  call void @llvm.lifetime.end.p0(i64 8, ptr %5) #10
  ret i32 %13
}

; Function Attrs: inlinehint nounwind uwtable
define internal ptr @_Py_TYPE(ptr noundef %0) #5 {
  %2 = alloca ptr, align 8
  store ptr %0, ptr %2, align 8, !tbaa !3
  %3 = load ptr, ptr %2, align 8, !tbaa !3
  %4 = getelementptr inbounds nuw %struct._object, ptr %3, i32 0, i32 1
  %5 = load ptr, ptr %4, align 8, !tbaa !28
  ret ptr %5
}

; Function Attrs: inlinehint nounwind uwtable
define internal i64 @PyTuple_GET_SIZE(ptr noundef %0) #5 {
  %2 = alloca ptr, align 8
  %3 = alloca ptr, align 8
  store ptr %0, ptr %2, align 8, !tbaa !3
  call void @llvm.lifetime.start.p0(i64 8, ptr %3) #10
  %4 = load ptr, ptr %2, align 8, !tbaa !3
  %5 = call ptr @_Py_TYPE(ptr noundef %4)
  %6 = call i32 @PyType_HasFeature(ptr noundef %5, i64 noundef 67108864)
  %7 = icmp ne i32 %6, 0
  br i1 %7, label %8, label %9

8:                                                ; preds = %1
  br label %11

9:                                                ; preds = %1
  call void @__assert_fail(ptr noundef @.str.47, ptr noundef @.str.48, i32 noundef 22, ptr noundef @__PRETTY_FUNCTION__.PyTuple_GET_SIZE) #11
  unreachable

10:                                               ; No predecessors!
  br label %11

11:                                               ; preds = %10, %8
  %12 = load ptr, ptr %2, align 8, !tbaa !3
  store ptr %12, ptr %3, align 8, !tbaa !31
  %13 = load ptr, ptr %3, align 8, !tbaa !31
  %14 = call i64 @Py_SIZE(ptr noundef %13)
  call void @llvm.lifetime.end.p0(i64 8, ptr %3) #10
  ret i64 %14
}

; Function Attrs: nounwind uwtable
define internal ptr @_testcapi_make_exception_with_doc(ptr noundef %0, ptr noundef %1, i64 noundef %2, ptr noundef %3) #0 {
  %5 = alloca ptr, align 8
  %6 = alloca ptr, align 8
  %7 = alloca ptr, align 8
  %8 = alloca i64, align 8
  %9 = alloca ptr, align 8
  %10 = alloca ptr, align 8
  %11 = alloca [4 x ptr], align 16
  %12 = alloca i64, align 8
  %13 = alloca ptr, align 8
  %14 = alloca ptr, align 8
  %15 = alloca ptr, align 8
  %16 = alloca ptr, align 8
  %17 = alloca i64, align 8
  %18 = alloca i64, align 8
  %19 = alloca i32, align 4
  store ptr %0, ptr %6, align 8, !tbaa !3
  store ptr %1, ptr %7, align 8, !tbaa !23
  store i64 %2, ptr %8, align 8, !tbaa !25
  store ptr %3, ptr %9, align 8, !tbaa !3
  call void @llvm.lifetime.start.p0(i64 8, ptr %10) #10
  store ptr null, ptr %10, align 8, !tbaa !3
  call void @llvm.lifetime.start.p0(i64 32, ptr %11) #10
  call void @llvm.lifetime.start.p0(i64 8, ptr %12) #10
  %20 = load i64, ptr %8, align 8, !tbaa !25
  %21 = load ptr, ptr %9, align 8, !tbaa !3
  %22 = icmp ne ptr %21, null
  br i1 %22, label %23, label %26

23:                                               ; preds = %4
  %24 = load ptr, ptr %9, align 8, !tbaa !3
  %25 = call i64 @PyTuple_GET_SIZE(ptr noundef %24)
  br label %27

26:                                               ; preds = %4
  br label %27

27:                                               ; preds = %26, %23
  %28 = phi i64 [ %25, %23 ], [ 0, %26 ]
  %29 = add i64 %20, %28
  %30 = sub i64 %29, 1
  store i64 %30, ptr %12, align 8, !tbaa !25
  call void @llvm.lifetime.start.p0(i64 8, ptr %13) #10
  call void @llvm.lifetime.start.p0(i64 8, ptr %14) #10
  store ptr null, ptr %14, align 8, !tbaa !22
  call void @llvm.lifetime.start.p0(i64 8, ptr %15) #10
  store ptr null, ptr %15, align 8, !tbaa !3
  call void @llvm.lifetime.start.p0(i64 8, ptr %16) #10
  store ptr null, ptr %16, align 8, !tbaa !3
  %31 = load ptr, ptr %9, align 8, !tbaa !3
  %32 = icmp eq ptr %31, null
  br i1 %32, label %33, label %44

33:                                               ; preds = %27
  %34 = load i64, ptr %8, align 8, !tbaa !25
  %35 = icmp sle i64 1, %34
  br i1 %35, label %36, label %44

36:                                               ; preds = %33
  %37 = load i64, ptr %8, align 8, !tbaa !25
  %38 = icmp sle i64 %37, 4
  br i1 %38, label %39, label %44

39:                                               ; preds = %36
  %40 = load ptr, ptr %7, align 8, !tbaa !23
  %41 = icmp ne ptr %40, null
  br i1 %41, label %42, label %44

42:                                               ; preds = %39
  %43 = load ptr, ptr %7, align 8, !tbaa !23
  br label %50

44:                                               ; preds = %39, %36, %33, %27
  %45 = load ptr, ptr %7, align 8, !tbaa !23
  %46 = load i64, ptr %8, align 8, !tbaa !25
  %47 = load ptr, ptr %9, align 8, !tbaa !3
  %48 = getelementptr inbounds [4 x ptr], ptr %11, i64 0, i64 0
  %49 = call ptr @_PyArg_UnpackKeywords(ptr noundef %45, i64 noundef %46, ptr noundef null, ptr noundef %47, ptr noundef @_testcapi_make_exception_with_doc._parser, i32 noundef 1, i32 noundef 4, i32 noundef 0, i32 noundef 0, ptr noundef %48)
  br label %50

50:                                               ; preds = %44, %42
  %51 = phi ptr [ %43, %42 ], [ %49, %44 ]
  store ptr %51, ptr %7, align 8, !tbaa !23
  %52 = load ptr, ptr %7, align 8, !tbaa !23
  %53 = icmp ne ptr %52, null
  br i1 %53, label %55, label %54

54:                                               ; preds = %50
  br label %150

55:                                               ; preds = %50
  %56 = load ptr, ptr %7, align 8, !tbaa !23
  %57 = getelementptr ptr, ptr %56, i64 0
  %58 = load ptr, ptr %57, align 8, !tbaa !3
  %59 = call ptr @_Py_TYPE(ptr noundef %58)
  %60 = call i32 @PyType_HasFeature(ptr noundef %59, i64 noundef 268435456)
  %61 = icmp ne i32 %60, 0
  br i1 %61, label %66, label %62

62:                                               ; preds = %55
  %63 = load ptr, ptr %7, align 8, !tbaa !23
  %64 = getelementptr ptr, ptr %63, i64 0
  %65 = load ptr, ptr %64, align 8, !tbaa !3
  call void @_PyArg_BadArgument(ptr noundef @.str.9, ptr noundef @.str.43, ptr noundef @.str.44, ptr noundef %65)
  br label %150

66:                                               ; preds = %55
  %67 = load ptr, ptr %7, align 8, !tbaa !23
  %68 = getelementptr ptr, ptr %67, i64 0
  %69 = load ptr, ptr %68, align 8, !tbaa !3
  %70 = call ptr @PyUnicode_AsUTF8AndSize(ptr noundef %69, ptr noundef %17)
  store ptr %70, ptr %13, align 8, !tbaa !22
  %71 = load ptr, ptr %13, align 8, !tbaa !22
  %72 = icmp eq ptr %71, null
  br i1 %72, label %73, label %74

73:                                               ; preds = %66
  br label %150

74:                                               ; preds = %66
  %75 = load ptr, ptr %13, align 8, !tbaa !22
  %76 = call i64 @strlen(ptr noundef %75) #12
  %77 = load i64, ptr %17, align 8, !tbaa !25
  %78 = icmp ne i64 %76, %77
  br i1 %78, label %79, label %81

79:                                               ; preds = %74
  %80 = load ptr, ptr @PyExc_ValueError, align 8, !tbaa !3
  call void @PyErr_SetString(ptr noundef %80, ptr noundef @.str.45)
  br label %150

81:                                               ; preds = %74
  %82 = load i64, ptr %12, align 8, !tbaa !25
  %83 = icmp ne i64 %82, 0
  br i1 %83, label %85, label %84

84:                                               ; preds = %81
  br label %143

85:                                               ; preds = %81
  %86 = load ptr, ptr %7, align 8, !tbaa !23
  %87 = getelementptr ptr, ptr %86, i64 1
  %88 = load ptr, ptr %87, align 8, !tbaa !3
  %89 = icmp ne ptr %88, null
  br i1 %89, label %90, label %125

90:                                               ; preds = %85
  %91 = load ptr, ptr %7, align 8, !tbaa !23
  %92 = getelementptr ptr, ptr %91, i64 1
  %93 = load ptr, ptr %92, align 8, !tbaa !3
  %94 = call ptr @_Py_TYPE(ptr noundef %93)
  %95 = call i32 @PyType_HasFeature(ptr noundef %94, i64 noundef 268435456)
  %96 = icmp ne i32 %95, 0
  br i1 %96, label %101, label %97

97:                                               ; preds = %90
  %98 = load ptr, ptr %7, align 8, !tbaa !23
  %99 = getelementptr ptr, ptr %98, i64 1
  %100 = load ptr, ptr %99, align 8, !tbaa !3
  call void @_PyArg_BadArgument(ptr noundef @.str.9, ptr noundef @.str.46, ptr noundef @.str.44, ptr noundef %100)
  br label %150

101:                                              ; preds = %90
  call void @llvm.lifetime.start.p0(i64 8, ptr %18) #10
  %102 = load ptr, ptr %7, align 8, !tbaa !23
  %103 = getelementptr ptr, ptr %102, i64 1
  %104 = load ptr, ptr %103, align 8, !tbaa !3
  %105 = call ptr @PyUnicode_AsUTF8AndSize(ptr noundef %104, ptr noundef %18)
  store ptr %105, ptr %14, align 8, !tbaa !22
  %106 = load ptr, ptr %14, align 8, !tbaa !22
  %107 = icmp eq ptr %106, null
  br i1 %107, label %108, label %109

108:                                              ; preds = %101
  store i32 2, ptr %19, align 4
  br label %122

109:                                              ; preds = %101
  %110 = load ptr, ptr %14, align 8, !tbaa !22
  %111 = call i64 @strlen(ptr noundef %110) #12
  %112 = load i64, ptr %18, align 8, !tbaa !25
  %113 = icmp ne i64 %111, %112
  br i1 %113, label %114, label %116

114:                                              ; preds = %109
  %115 = load ptr, ptr @PyExc_ValueError, align 8, !tbaa !3
  call void @PyErr_SetString(ptr noundef %115, ptr noundef @.str.45)
  store i32 2, ptr %19, align 4
  br label %122

116:                                              ; preds = %109
  %117 = load i64, ptr %12, align 8, !tbaa !25
  %118 = add i64 %117, -1
  store i64 %118, ptr %12, align 8, !tbaa !25
  %119 = icmp ne i64 %118, 0
  br i1 %119, label %121, label %120

120:                                              ; preds = %116
  store i32 3, ptr %19, align 4
  br label %122

121:                                              ; preds = %116
  store i32 0, ptr %19, align 4
  br label %122

122:                                              ; preds = %120, %114, %108, %121
  call void @llvm.lifetime.end.p0(i64 8, ptr %18) #10
  %123 = load i32, ptr %19, align 4
  switch i32 %123, label %152 [
    i32 0, label %124
    i32 3, label %143
    i32 2, label %150
  ]

124:                                              ; preds = %122
  br label %125

125:                                              ; preds = %124, %85
  %126 = load ptr, ptr %7, align 8, !tbaa !23
  %127 = getelementptr ptr, ptr %126, i64 2
  %128 = load ptr, ptr %127, align 8, !tbaa !3
  %129 = icmp ne ptr %128, null
  br i1 %129, label %130, label %139

130:                                              ; preds = %125
  %131 = load ptr, ptr %7, align 8, !tbaa !23
  %132 = getelementptr ptr, ptr %131, i64 2
  %133 = load ptr, ptr %132, align 8, !tbaa !3
  store ptr %133, ptr %15, align 8, !tbaa !3
  %134 = load i64, ptr %12, align 8, !tbaa !25
  %135 = add i64 %134, -1
  store i64 %135, ptr %12, align 8, !tbaa !25
  %136 = icmp ne i64 %135, 0
  br i1 %136, label %138, label %137

137:                                              ; preds = %130
  br label %143

138:                                              ; preds = %130
  br label %139

139:                                              ; preds = %138, %125
  %140 = load ptr, ptr %7, align 8, !tbaa !23
  %141 = getelementptr ptr, ptr %140, i64 3
  %142 = load ptr, ptr %141, align 8, !tbaa !3
  store ptr %142, ptr %16, align 8, !tbaa !3
  br label %143

143:                                              ; preds = %139, %122, %137, %84
  %144 = load ptr, ptr %6, align 8, !tbaa !3
  %145 = load ptr, ptr %13, align 8, !tbaa !22
  %146 = load ptr, ptr %14, align 8, !tbaa !22
  %147 = load ptr, ptr %15, align 8, !tbaa !3
  %148 = load ptr, ptr %16, align 8, !tbaa !3
  %149 = call ptr @_testcapi_make_exception_with_doc_impl(ptr noundef %144, ptr noundef %145, ptr noundef %146, ptr noundef %147, ptr noundef %148)
  store ptr %149, ptr %10, align 8, !tbaa !3
  br label %150

150:                                              ; preds = %143, %122, %97, %79, %73, %62, %54
  %151 = load ptr, ptr %10, align 8, !tbaa !3
  store ptr %151, ptr %5, align 8
  store i32 1, ptr %19, align 4
  br label %152

152:                                              ; preds = %150, %122
  call void @llvm.lifetime.end.p0(i64 8, ptr %16) #10
  call void @llvm.lifetime.end.p0(i64 8, ptr %15) #10
  call void @llvm.lifetime.end.p0(i64 8, ptr %14) #10
  call void @llvm.lifetime.end.p0(i64 8, ptr %13) #10
  call void @llvm.lifetime.end.p0(i64 8, ptr %12) #10
  call void @llvm.lifetime.end.p0(i64 32, ptr %11) #10
  call void @llvm.lifetime.end.p0(i64 8, ptr %10) #10
  %153 = load ptr, ptr %5, align 8
  ret ptr %153
}