; Function Attrs: nounwind uwtable
define internal ptr @_testcapi_make_exception_with_doc(ptr readnone captures(none) %0, ptr noundef %1, i64 noundef %2, ptr noundef %3) #0 {
  %5 = alloca [4 x ptr], align 16
  %6 = alloca i64, align 8
  %7 = alloca i64, align 8
  call void @llvm.lifetime.start.p0(i64 32, ptr nonnull %5) #8
  %.not = icmp eq ptr %3, null
  br i1 %.not, label %19, label %8

8:                                                ; preds = %4
  %9 = getelementptr i8, ptr %3, i64 8
  %.val.i = load ptr, ptr %9, align 8, !tbaa !22
  %10 = getelementptr i8, ptr %.val.i, i64 168
  %.val3.i = load i64, ptr %10, align 8, !tbaa !23
  %11 = and i64 %.val3.i, 67108864
  %.not.i = icmp eq i64 %11, 0
  br i1 %.not.i, label %12, label %13

12:                                               ; preds = %8
  tail call void @__assert_fail(ptr noundef nonnull @.str.47, ptr noundef nonnull @.str.48, i32 noundef 22, ptr noundef nonnull @__PRETTY_FUNCTION__.PyTuple_GET_SIZE) #9
  unreachable

13:                                               ; preds = %8
  %.not.i.i = icmp eq ptr %.val.i, @PyLong_Type
  br i1 %.not.i.i, label %14, label %15

14:                                               ; preds = %13
  tail call void @__assert_fail(ptr noundef nonnull @.str.49, ptr noundef nonnull @.str.50, i32 noundef 282, ptr noundef nonnull @__PRETTY_FUNCTION__.Py_SIZE) #9
  unreachable

15:                                               ; preds = %13
  %.not3.i.i = icmp eq ptr %.val.i, @PyBool_Type
  br i1 %.not3.i.i, label %16, label %PyTuple_GET_SIZE.exit

16:                                               ; preds = %15
  tail call void @__assert_fail(ptr noundef nonnull @.str.51, ptr noundef nonnull @.str.50, i32 noundef 283, ptr noundef nonnull @__PRETTY_FUNCTION__.Py_SIZE) #9
  unreachable

PyTuple_GET_SIZE.exit:                            ; preds = %15
  %17 = getelementptr inbounds nuw i8, ptr %3, i64 16
  %18 = load i64, ptr %17, align 8, !tbaa !25
  br label %19

19:                                               ; preds = %4, %PyTuple_GET_SIZE.exit
  %20 = phi i64 [ %18, %PyTuple_GET_SIZE.exit ], [ 0, %4 ]
  %21 = add i64 %20, %2
  %22 = add i64 %21, -1
  %23 = add i64 %2, -1
  %24 = icmp ult i64 %23, 4
  %25 = icmp ne ptr %1, null
  %26 = and i1 %25, %24
  %or.cond5 = and i1 %.not, %26
  br i1 %or.cond5, label %.thread, label %27

27:                                               ; preds = %19
  %28 = call ptr @_PyArg_UnpackKeywords(ptr noundef %1, i64 noundef %2, ptr noundef null, ptr noundef %3, ptr noundef nonnull @_testcapi_make_exception_with_doc._parser, i32 noundef 1, i32 noundef 4, i32 noundef 0, i32 noundef 0, ptr noundef nonnull %5) #8
  %.not59 = icmp eq ptr %28, null
  br i1 %.not59, label %69, label %.thread

.thread:                                          ; preds = %19, %27
  %29 = phi ptr [ %28, %27 ], [ %1, %19 ]
  %30 = load ptr, ptr %29, align 8, !tbaa !3
  %31 = getelementptr i8, ptr %30, i64 8
  %.val = load ptr, ptr %31, align 8, !tbaa !22
  %32 = getelementptr i8, ptr %.val, i64 168
  %.val71 = load i64, ptr %32, align 8, !tbaa !23
  %33 = and i64 %.val71, 268435456
  %.not60 = icmp eq i64 %33, 0
  br i1 %.not60, label %34, label %35

34:                                               ; preds = %.thread
  call void @_PyArg_BadArgument(ptr noundef nonnull @.str.9, ptr noundef nonnull @.str.43, ptr noundef nonnull @.str.44, ptr noundef nonnull %30) #8
  br label %69

35:                                               ; preds = %.thread
  %36 = call ptr @PyUnicode_AsUTF8AndSize(ptr noundef nonnull %30, ptr noundef nonnull %6) #8
  %37 = icmp eq ptr %36, null
  br i1 %37, label %69, label %38

38:                                               ; preds = %35
  %39 = call i64 @strlen(ptr noundef nonnull dereferenceable(1) %36) #10
  %40 = load i64, ptr %6, align 8, !tbaa !26
  %.not61 = icmp eq i64 %39, %40
  br i1 %.not61, label %43, label %41

41:                                               ; preds = %38
  %42 = load ptr, ptr @PyExc_ValueError, align 8, !tbaa !3
  call void @PyErr_SetString(ptr noundef %42, ptr noundef nonnull @.str.45) #8
  br label %69

43:                                               ; preds = %38
  %.not62 = icmp eq i64 %22, 0
  br i1 %.not62, label %67, label %44

44:                                               ; preds = %43
  %45 = getelementptr i8, ptr %29, i64 8
  %46 = load ptr, ptr %45, align 8, !tbaa !3
  %.not63 = icmp eq ptr %46, null
  br i1 %.not63, label %.thread77, label %47

47:                                               ; preds = %44
  %48 = getelementptr i8, ptr %46, i64 8
  %.val70 = load ptr, ptr %48, align 8, !tbaa !22
  %49 = getelementptr i8, ptr %.val70, i64 168
  %.val72 = load i64, ptr %49, align 8, !tbaa !23
  %50 = and i64 %.val72, 268435456
  %.not64 = icmp eq i64 %50, 0
  br i1 %.not64, label %51, label %52

51:                                               ; preds = %47
  call void @_PyArg_BadArgument(ptr noundef nonnull @.str.9, ptr noundef nonnull @.str.46, ptr noundef nonnull @.str.44, ptr noundef nonnull %46) #8
  br label %69

52:                                               ; preds = %47
  call void @llvm.lifetime.start.p0(i64 8, ptr nonnull %7) #8
  %53 = call ptr @PyUnicode_AsUTF8AndSize(ptr noundef nonnull %46, ptr noundef nonnull %7) #8
  %54 = icmp eq ptr %53, null
  br i1 %54, label %.thread74, label %55

55:                                               ; preds = %52
  %56 = call i64 @strlen(ptr noundef nonnull dereferenceable(1) %53) #10
  %57 = load i64, ptr %7, align 8, !tbaa !26
  %.not65 = icmp eq i64 %56, %57
  br i1 %.not65, label %60, label %58

58:                                               ; preds = %55
  %59 = load ptr, ptr @PyExc_ValueError, align 8, !tbaa !3
  call void @PyErr_SetString(ptr noundef %59, ptr noundef nonnull @.str.45) #8
  br label %.thread74

60:                                               ; preds = %55
  %61 = add i64 %21, -2
  %.not66 = icmp eq i64 %61, 0
  call void @llvm.lifetime.end.p0(i64 8, ptr nonnull %7) #8
  br i1 %.not66, label %67, label %.thread77

.thread74:                                        ; preds = %58, %52
  call void @llvm.lifetime.end.p0(i64 8, ptr nonnull %7) #8
  br label %69

.thread77:                                        ; preds = %60, %44
  %.046 = phi i64 [ %22, %44 ], [ %61, %60 ]
  %.144 = phi ptr [ null, %44 ], [ %53, %60 ]
  %62 = getelementptr i8, ptr %29, i64 16
  %63 = load ptr, ptr %62, align 8, !tbaa !3
  %.not67 = icmp ne ptr %63, null
  %.not68 = icmp eq i64 %.046, 1
  %or.cond = select i1 %.not67, i1 %.not68, i1 false
  br i1 %or.cond, label %67, label %64

64:                                               ; preds = %.thread77
  %65 = getelementptr i8, ptr %29, i64 24
  %66 = load ptr, ptr %65, align 8, !tbaa !3
  br label %67

67:                                               ; preds = %60, %.thread77, %43, %64
  %.043 = phi ptr [ %.144, %64 ], [ null, %43 ], [ %.144, %.thread77 ], [ %53, %60 ]
  %.042 = phi ptr [ %63, %64 ], [ null, %43 ], [ %63, %.thread77 ], [ null, %60 ]
  %.041 = phi ptr [ %66, %64 ], [ null, %43 ], [ null, %.thread77 ], [ null, %60 ]
  %68 = call ptr @PyErr_NewExceptionWithDoc(ptr noundef nonnull %36, ptr noundef %.043, ptr noundef %.042, ptr noundef %.041) #8
  br label %69

69:                                               ; preds = %.thread74, %34, %41, %51, %67, %27, %35
  %.045 = phi ptr [ null, %35 ], [ null, %41 ], [ %68, %67 ], [ null, %51 ], [ null, %34 ], [ null, %27 ], [ null, %.thread74 ]
  call void @llvm.lifetime.end.p0(i64 32, ptr nonnull %5) #8
  ret ptr %.045
}